target datalayout = "e-m:e-p270:32:32-p271:32:32-p272:64:64-i64:64-i128:128-f80:128-n8:16:32:64-S128"
target triple = "x86_64-pc-linux-gnu"

%struct.stat = type { i64, i64, i64, i32, i32, i32, i32, i64, i64, i64, i64, %struct.timespec, %struct.timespec, %struct.timespec, [3 x i64] }
%struct.timespec = type { i64, i64 }

@.str = private unnamed_addr constant [3 x i8] c"rb\00", align 1
@.str.1 = private unnamed_addr constant [34 x i8] c"../openssl/crypto/rand/randfile.c\00", align 1
@__func__.RAND_load_file = private unnamed_addr constant [15 x i8] c"RAND_load_file\00", align 1
@.str.2 = private unnamed_addr constant [12 x i8] c"Filename=%s\00", align 1

; Function Attrs: nounwind uwtable
define i32 @RAND_load_file(ptr noundef %0, i64 noundef %1) #0 {
  %3 = alloca i32, align 4
  %4 = alloca ptr, align 8
  %5 = alloca i64, align 8
  %6 = alloca [1280 x i8], align 16
  %7 = alloca %struct.stat, align 8
  %8 = alloca i32, align 4
  %9 = alloca i32, align 4
  %10 = alloca i32, align 4
  %11 = alloca ptr, align 8
  %12 = alloca i32, align 4
  store ptr %0, ptr %4, align 8, !tbaa !3
  store i64 %1, ptr %5, align 8, !tbaa !8
  call void @llvm.lifetime.start.p0(i64 1280, ptr %6) #6
  call void @llvm.lifetime.start.p0(i64 144, ptr %7) #6
  call void @llvm.lifetime.start.p0(i64 4, ptr %8) #6
  call void @llvm.lifetime.start.p0(i64 4, ptr %9) #6
  call void @llvm.lifetime.start.p0(i64 4, ptr %10) #6
  store i32 0, ptr %10, align 4, !tbaa !10
  call void @llvm.lifetime.start.p0(i64 8, ptr %11) #6
  %13 = load i64, ptr %5, align 8, !tbaa !8
  %14 = icmp eq i64 %13, 0
  br i1 %14, label %15, label %16

15:                                               ; preds = %2
  store i32 0, ptr %3, align 4
  store i32 1, ptr %12, align 4
  br label %111

16:                                               ; preds = %2
  %17 = load ptr, ptr %4, align 8, !tbaa !3
  %18 = call ptr @openssl_fopen(ptr noundef %17, ptr noundef @.str)
  store ptr %18, ptr %11, align 8, !tbaa !12
  %19 = icmp eq ptr %18, null
  br i1 %19, label %20, label %22

20:                                               ; preds = %16
  call void @ERR_new()
  call void @ERR_set_debug(ptr noundef @.str.1, i32 noundef 107, ptr noundef @__func__.RAND_load_file)
  %21 = load ptr, ptr %4, align 8, !tbaa !3
  call void (i32, i32, ptr, ...) @ERR_set_error(i32 noundef 36, i32 noundef 121, ptr noundef @.str.2, ptr noundef %21)
  store i32 -1, ptr %3, align 4
  store i32 1, ptr %12, align 4
  br label %111

22:                                               ; preds = %16
  %23 = load ptr, ptr %11, align 8, !tbaa !12
  %24 = call i32 @fileno(ptr noundef %23) #6
  %25 = call i32 @fstat(i32 noundef %24, ptr noundef %7) #6
  %26 = icmp slt i32 %25, 0
  br i1 %26, label %27, label %31

27:                                               ; preds = %22
  call void @ERR_new()
  call void @ERR_set_debug(ptr noundef @.str.1, i32 noundef 114, ptr noundef @__func__.RAND_load_file)
  %28 = load ptr, ptr %4, align 8, !tbaa !3
  call void (i32, i32, ptr, ...) @ERR_set_error(i32 noundef 36, i32 noundef 113, ptr noundef @.str.2, ptr noundef %28)
  %29 = load ptr, ptr %11, align 8, !tbaa !12
  %30 = call i32 @fclose(ptr noundef %29)
  store i32 -1, ptr %3, align 4
  store i32 1, ptr %12, align 4
  br label %111

31:                                               ; preds = %22
  %32 = load i64, ptr %5, align 8, !tbaa !8
  %33 = icmp slt i64 %32, 0
  br i1 %33, label %34, label %44

34:                                               ; preds = %31
  %35 = getelementptr inbounds nuw %struct.stat, ptr %7, i32 0, i32 3
  %36 = load i32, ptr %35, align 8, !tbaa !14
  %37 = and i32 %36, 61440
  %38 = icmp eq i32 %37, 32768
  br i1 %38, label %39, label %42

39:                                               ; preds = %34
  %40 = getelementptr inbounds nuw %struct.stat, ptr %7, i32 0, i32 8
  %41 = load i64, ptr %40, align 8, !tbaa !17
  store i64 %41, ptr %5, align 8, !tbaa !8
  br label %43

42:                                               ; preds = %34
  store i64 256, ptr %5, align 8, !tbaa !8
  br label %43

43:                                               ; preds = %42, %39
  br label %44

44:                                               ; preds = %43, %31
  %45 = load ptr, ptr %11, align 8, !tbaa !12
  call void @setbuf(ptr noundef %45, ptr noundef null) #6
  br label %46

46:                                               ; preds = %100, %77, %44
  %47 = load i64, ptr %5, align 8, !tbaa !8
  %48 = icmp sgt i64 %47, 0
  br i1 %48, label %49, label %58

49:                                               ; preds = %46
  %50 = load i64, ptr %5, align 8, !tbaa !8
  %51 = icmp sle i64 %50, 1280
  br i1 %51, label %52, label %55

52:                                               ; preds = %49
  %53 = load i64, ptr %5, align 8, !tbaa !8
  %54 = trunc i64 %53 to i32
  br label %56

55:                                               ; preds = %49
  br label %56

56:                                               ; preds = %55, %52
  %57 = phi i32 [ %54, %52 ], [ 1024, %55 ]
  store i32 %57, ptr %9, align 4, !tbaa !10
  br label %59

58:                                               ; preds = %46
  store i32 1280, ptr %9, align 4, !tbaa !10
  br label %59

59:                                               ; preds = %58, %56
  %60 = getelementptr inbounds [1280 x i8], ptr %6, i64 0, i64 0
  %61 = load i32, ptr %9, align 4, !tbaa !10
  %62 = sext i32 %61 to i64
  %63 = load ptr, ptr %11, align 8, !tbaa !12
  %64 = call i64 @fread(ptr noundef %60, i64 noundef 1, i64 noundef %62, ptr noundef %63)
  %65 = trunc i64 %64 to i32
  store i32 %65, ptr %8, align 4, !tbaa !10
  %66 = load ptr, ptr %11, align 8, !tbaa !12
  %67 = call i32 @ferror(ptr noundef %66) #6
  %68 = icmp ne i32 %67, 0
  br i1 %68, label %69, label %79

69:                                               ; preds = %59
  %70 = call ptr @__errno_location() #7
  %71 = load i32, ptr %70, align 4, !tbaa !10
  %72 = icmp eq i32 %71, 4
  br i1 %72, label %73, label %79

73:                                               ; preds = %69
  %74 = load ptr, ptr %11, align 8, !tbaa !12
  call void @clearerr(ptr noundef %74) #6
  %75 = load i32, ptr %8, align 4, !tbaa !10
  %76 = icmp eq i32 %75, 0
  br i1 %76, label %77, label %78

77:                                               ; preds = %73
  br label %46

78:                                               ; preds = %73
  br label %79

79:                                               ; preds = %78, %69, %59
  %80 = load i32, ptr %8, align 4, !tbaa !10
  %81 = icmp eq i32 %80, 0
  br i1 %81, label %82, label %83

82:                                               ; preds = %79
  br label %101

83:                                               ; preds = %79
  %84 = getelementptr inbounds [1280 x i8], ptr %6, i64 0, i64 0
  %85 = load i32, ptr %8, align 4, !tbaa !10
  %86 = load i32, ptr %8, align 4, !tbaa !10
  %87 = sitofp i32 %86 to double
  call void @RAND_add(ptr noundef %84, i32 noundef %85, double noundef %87)
  %88 = load i32, ptr %8, align 4, !tbaa !10
  %89 = load i32, ptr %10, align 4, !tbaa !10
  %90 = add nsw i32 %89, %88
  store i32 %90, ptr %10, align 4, !tbaa !10
  %91 = load i64, ptr %5, align 8, !tbaa !8
  %92 = icmp sgt i64 %91, 0
  br i1 %92, label %93, label %100

93:                                               ; preds = %83
  %94 = load i32, ptr %8, align 4, !tbaa !10
  %95 = sext i32 %94 to i64
  %96 = load i64, ptr %5, align 8, !tbaa !8
  %97 = sub nsw i64 %96, %95
  store i64 %97, ptr %5, align 8, !tbaa !8
  %98 = icmp sle i64 %97, 0
  br i1 %98, label %99, label %100

99:                                               ; preds = %93
  br label %101

100:                                              ; preds = %93, %83
  br label %46

101:                                              ; preds = %99, %82
  %102 = getelementptr inbounds [1280 x i8], ptr %6, i64 0, i64 0
  call void @OPENSSL_cleanse(ptr noundef %102, i64 noundef 1280)
  %103 = load ptr, ptr %11, align 8, !tbaa !12
  %104 = call i32 @fclose(ptr noundef %103)
  %105 = call i32 @RAND_status()
  %106 = icmp ne i32 %105, 0
  br i1 %106, label %109, label %107

107:                                              ; preds = %101
  call void @ERR_new()
  call void @ERR_set_debug(ptr noundef @.str.1, i32 noundef 175, ptr noundef @__func__.RAND_load_file)
  %108 = load ptr, ptr %4, align 8, !tbaa !3
  call void (i32, i32, ptr, ...) @ERR_set_error(i32 noundef 36, i32 noundef 118, ptr noundef @.str.2, ptr noundef %108)
  store i32 -1, ptr %3, align 4
  store i32 1, ptr %12, align 4
  br label %111

109:                                              ; preds = %101
  %110 = load i32, ptr %10, align 4, !tbaa !10
  store i32 %110, ptr %3, align 4
  store i32 1, ptr %12, align 4
  br label %111

111:                                              ; preds = %109, %107, %27, %20, %15
  call void @llvm.lifetime.end.p0(i64 8, ptr %11) #6
  call void @llvm.lifetime.end.p0(i64 4, ptr %10) #6
  call void @llvm.lifetime.end.p0(i64 4, ptr %9) #6
  call void @llvm.lifetime.end.p0(i64 4, ptr %8) #6
  call void @llvm.lifetime.end.p0(i64 144, ptr %7) #6
  call void @llvm.lifetime.end.p0(i64 1280, ptr %6) #6
  %112 = load i32, ptr %3, align 4
  ret i32 %112
}