; Function Attrs: nounwind uwtable
define i32 @RAND_load_file(ptr noundef %0, i64 noundef %1) local_unnamed_addr #0 {
  %3 = alloca [1280 x i8], align 16
  %4 = alloca %struct.stat, align 8
  call void @llvm.lifetime.start.p0(i64 1280, ptr nonnull %3) #10
  call void @llvm.lifetime.start.p0(i64 144, ptr nonnull %4) #10
  %5 = icmp eq i64 %1, 0
  br i1 %5, label %51, label %6

6:                                                ; preds = %2
  %7 = tail call ptr @openssl_fopen(ptr noundef %0, ptr noundef nonnull @.str) #10
  %8 = icmp eq ptr %7, null
  br i1 %8, label %9, label %10

9:                                                ; preds = %6
  tail call void @ERR_new() #10
  tail call void @ERR_set_debug(ptr noundef nonnull @.str.1, i32 noundef 107, ptr noundef nonnull @__func__.RAND_load_file) #10
  tail call void (i32, i32, ptr, ...) @ERR_set_error(i32 noundef 36, i32 noundef 121, ptr noundef nonnull @.str.2, ptr noundef %0) #10
  br label %51

10:                                               ; preds = %6
  %11 = tail call i32 @fileno(ptr noundef nonnull %7) #10
  %12 = call i32 @fstat(i32 noundef %11, ptr noundef nonnull %4) #10
  %13 = icmp slt i32 %12, 0
  br i1 %13, label %14, label %16

14:                                               ; preds = %10
  tail call void @ERR_new() #10
  tail call void @ERR_set_debug(ptr noundef nonnull @.str.1, i32 noundef 114, ptr noundef nonnull @__func__.RAND_load_file) #10
  tail call void (i32, i32, ptr, ...) @ERR_set_error(i32 noundef 36, i32 noundef 113, ptr noundef nonnull @.str.2, ptr noundef %0) #10
  %15 = tail call i32 @fclose(ptr noundef nonnull %7)
  br label %51

16:                                               ; preds = %10
  %17 = icmp slt i64 %1, 0
  br i1 %17, label %18, label %26

18:                                               ; preds = %16
  %19 = getelementptr inbounds nuw i8, ptr %4, i64 24
  %20 = load i32, ptr %19, align 8, !tbaa !3
  %21 = and i32 %20, 61440
  %22 = icmp eq i32 %21, 32768
  br i1 %22, label %23, label %26

23:                                               ; preds = %18
  %24 = getelementptr inbounds nuw i8, ptr %4, i64 48
  %25 = load i64, ptr %24, align 8, !tbaa !10
  br label %26

26:                                               ; preds = %18, %23, %16
  %.029 = phi i64 [ %25, %23 ], [ %1, %16 ], [ 256, %18 ]
  tail call void @setbuf(ptr noundef nonnull %7, ptr noundef null) #10
  br label %.outer.outer

.outer.outer:                                     ; preds = %44, %26
  %.130.ph.ph = phi i64 [ %46, %44 ], [ %.029, %26 ]
  %.027.ph.ph = phi i32 [ %43, %44 ], [ 0, %26 ]
  %27 = icmp sgt i64 %.130.ph.ph, 0
  %28 = icmp slt i64 %.130.ph.ph, 1281
  %sext = shl i64 %.130.ph.ph, 32
  %29 = ashr exact i64 %sext, 32
  %30 = select i1 %28, i64 %29, i64 1024
  %.028 = select i1 %27, i64 %30, i64 1280
  br label %.outer

.outer:                                           ; preds = %.outer.outer, %.loopexit
  %.027.ph = phi i32 [ %43, %.loopexit ], [ %.027.ph.ph, %.outer.outer ]
  br label %31

31:                                               ; preds = %.outer, %39
  %32 = call i64 @fread(ptr noundef nonnull %3, i64 noundef 1, i64 noundef %.028, ptr noundef nonnull %7)
  %33 = trunc i64 %32 to i32
  %34 = call i32 @ferror(ptr noundef nonnull %7) #10
  %.not = icmp eq i32 %34, 0
  br i1 %.not, label %40, label %35

35:                                               ; preds = %31
  %36 = tail call ptr @__errno_location() #11
  %37 = load i32, ptr %36, align 4, !tbaa !11
  %38 = icmp eq i32 %37, 4
  br i1 %38, label %39, label %40

39:                                               ; preds = %35
  call void @clearerr(ptr noundef nonnull %7) #10
  %cond = icmp eq i32 %33, 0
  br i1 %cond, label %31, label %.loopexit

40:                                               ; preds = %35, %31
  %41 = icmp eq i32 %33, 0
  br i1 %41, label %.loopexit51, label %.loopexit

.loopexit:                                        ; preds = %39, %40
  %42 = sitofp i32 %33 to double
  call void @RAND_add(ptr noundef nonnull %3, i32 noundef %33, double noundef %42) #10
  %43 = add nsw i32 %.027.ph, %33
  br i1 %27, label %44, label %.outer

44:                                               ; preds = %.loopexit
  %sext35 = shl i64 %32, 32
  %45 = ashr exact i64 %sext35, 32
  %46 = sub nsw i64 %.130.ph.ph, %45
  %47 = icmp slt i64 %46, 1
  br i1 %47, label %.loopexit51, label %.outer.outer

.loopexit51:                                      ; preds = %44, %40
  %.1 = phi i32 [ %.027.ph, %40 ], [ %43, %44 ]
  call void @OPENSSL_cleanse(ptr noundef nonnull %3, i64 noundef 1280) #10
  %48 = call i32 @fclose(ptr noundef nonnull %7)
  %49 = call i32 @RAND_status() #10
  %.not36 = icmp eq i32 %49, 0
  br i1 %.not36, label %50, label %51

50:                                               ; preds = %.loopexit51
  call void @ERR_new() #10
  call void @ERR_set_debug(ptr noundef nonnull @.str.1, i32 noundef 175, ptr noundef nonnull @__func__.RAND_load_file) #10
  call void (i32, i32, ptr, ...) @ERR_set_error(i32 noundef 36, i32 noundef 118, ptr noundef nonnull @.str.2, ptr noundef %0) #10
  br label %51

51:                                               ; preds = %.loopexit51, %2, %50, %14, %9
  %.0 = phi i32 [ -1, %9 ], [ -1, %14 ], [ -1, %50 ], [ 0, %2 ], [ %.1, %.loopexit51 ]
  call void @llvm.lifetime.end.p0(i64 144, ptr nonnull %4) #10
  call void @llvm.lifetime.end.p0(i64 1280, ptr nonnull %3) #10
  ret i32 %.0
}